target datalayout = "e-m:e-p270:32:32-p271:32:32-p272:64:64-i64:64-i128:128-f80:128-n8:16:32:64-S128"
target triple = "x86_64-pc-linux-gnu"

%struct.blake2b_state = type <{ [8 x i64], [2 x i64], [2 x i64], [256 x i8], i64, i8 }>

@blake2b_compress = internal global ptr @_sodium_blake2b_compress_ref, align 8

; Function Attrs: inlinehint nounwind ssp uwtable
define internal i32 @blake2b_increment_counter(ptr noundef %0, i64 noundef %1) #2 {
  %3 = alloca ptr, align 8
  %4 = alloca i64, align 8
  %5 = alloca i128, align 16
  store ptr %0, ptr %3, align 8
  store i64 %1, ptr %4, align 8
  call void @llvm.lifetime.start.p0(i64 16, ptr %5) #8
  %6 = load ptr, ptr %3, align 8
  %7 = getelementptr inbounds nuw %struct.blake2b_state, ptr %6, i32 0, i32 1
  %8 = getelementptr [2 x i64], ptr %7, i64 0, i64 1
  %9 = load i64, ptr %8, align 1
  %10 = zext i64 %9 to i128
  %11 = shl i128 %10, 64
  %12 = load ptr, ptr %3, align 8
  %13 = getelementptr inbounds nuw %struct.blake2b_state, ptr %12, i32 0, i32 1
  %14 = getelementptr [2 x i64], ptr %13, i64 0, i64 0
  %15 = load i64, ptr %14, align 1
  %16 = zext i64 %15 to i128
  %17 = or i128 %11, %16
  store i128 %17, ptr %5, align 16
  %18 = load i64, ptr %4, align 8
  %19 = zext i64 %18 to i128
  %20 = load i128, ptr %5, align 16
  %21 = add i128 %20, %19
  store i128 %21, ptr %5, align 16
  %22 = load i128, ptr %5, align 16
  %23 = lshr i128 %22, 0
  %24 = trunc i128 %23 to i64
  %25 = load ptr, ptr %3, align 8
  %26 = getelementptr inbounds nuw %struct.blake2b_state, ptr %25, i32 0, i32 1
  %27 = getelementptr [2 x i64], ptr %26, i64 0, i64 0
  store i64 %24, ptr %27, align 1
  %28 = load i128, ptr %5, align 16
  %29 = lshr i128 %28, 64
  %30 = trunc i128 %29 to i64
  %31 = load ptr, ptr %3, align 8
  %32 = getelementptr inbounds nuw %struct.blake2b_state, ptr %31, i32 0, i32 1
  %33 = getelementptr [2 x i64], ptr %32, i64 0, i64 1
  store i64 %30, ptr %33, align 1
  call void @llvm.lifetime.end.p0(i64 16, ptr %5) #8
  ret i32 0
}

; Function Attrs: alwaysinline nounwind
define internal ptr @memcpy.inline(ptr noalias nonnull %0, ptr noalias nonnull %1, i64 %2) #4 {
  %4 = alloca ptr, align 8
  %5 = alloca ptr, align 8
  %6 = alloca i64, align 8
  store ptr %0, ptr %4, align 8
  store ptr %1, ptr %5, align 8
  store i64 %2, ptr %6, align 8
  %7 = load ptr, ptr %4, align 8
  %8 = load ptr, ptr %5, align 8
  %9 = load i64, ptr %6, align 8
  %10 = load ptr, ptr %4, align 8
  %11 = call i64 @llvm.objectsize.i64.p0(ptr %10, i1 false, i1 true, i1 true)
  %12 = call ptr @__memcpy_chk(ptr noundef %7, ptr noundef %8, i64 noundef %9, i64 noundef %11) #8
  ret ptr %12
}

; Function Attrs: nounwind ssp uwtable
define hidden i32 @_sodium_blake2b_update(ptr noundef %0, ptr noundef %1, i64 noundef %2) #0 {
  %4 = alloca ptr, align 8
  %5 = alloca ptr, align 8
  %6 = alloca i64, align 8
  %7 = alloca i64, align 8
  %8 = alloca i64, align 8
  store ptr %0, ptr %4, align 8
  store ptr %1, ptr %5, align 8
  store i64 %2, ptr %6, align 8
  br label %9

9:                                                ; preds = %81, %3
  %10 = load i64, ptr %6, align 8
  %11 = icmp ugt i64 %10, 0
  br i1 %11, label %12, label %82

12:                                               ; preds = %9
  call void @llvm.lifetime.start.p0(i64 8, ptr %7) #8
  %13 = load ptr, ptr %4, align 8
  %14 = getelementptr inbounds nuw %struct.blake2b_state, ptr %13, i32 0, i32 4
  %15 = load i64, ptr %14, align 1
  store i64 %15, ptr %7, align 8
  call void @llvm.lifetime.start.p0(i64 8, ptr %8) #8
  %16 = load i64, ptr %7, align 8
  %17 = sub i64 256, %16
  store i64 %17, ptr %8, align 8
  %18 = load i64, ptr %6, align 8
  %19 = load i64, ptr %8, align 8
  %20 = icmp ugt i64 %18, %19
  br i1 %20, label %21, label %61

21:                                               ; preds = %12
  %22 = load ptr, ptr %4, align 8
  %23 = getelementptr inbounds nuw %struct.blake2b_state, ptr %22, i32 0, i32 3
  %24 = getelementptr inbounds [256 x i8], ptr %23, i64 0, i64 0
  %25 = load i64, ptr %7, align 8
  %26 = getelementptr i8, ptr %24, i64 %25
  %27 = load ptr, ptr %5, align 8
  %28 = load i64, ptr %8, align 8
  %29 = call ptr @memcpy.inline(ptr noundef %26, ptr noundef %27, i64 noundef %28) #8
  %30 = load i64, ptr %8, align 8
  %31 = load ptr, ptr %4, align 8
  %32 = getelementptr inbounds nuw %struct.blake2b_state, ptr %31, i32 0, i32 4
  %33 = load i64, ptr %32, align 1
  %34 = add i64 %33, %30
  store i64 %34, ptr %32, align 1
  %35 = load ptr, ptr %4, align 8
  %36 = call i32 @blake2b_increment_counter(ptr noundef %35, i64 noundef 128)
  %37 = load ptr, ptr @blake2b_compress, align 8
  %38 = load ptr, ptr %4, align 8
  %39 = load ptr, ptr %4, align 8
  %40 = getelementptr inbounds nuw %struct.blake2b_state, ptr %39, i32 0, i32 3
  %41 = getelementptr inbounds [256 x i8], ptr %40, i64 0, i64 0
  %42 = call i32 %37(ptr noundef %38, ptr noundef %41)
  %43 = load ptr, ptr %4, align 8
  %44 = getelementptr inbounds nuw %struct.blake2b_state, ptr %43, i32 0, i32 3
  %45 = getelementptr inbounds [256 x i8], ptr %44, i64 0, i64 0
  %46 = load ptr, ptr %4, align 8
  %47 = getelementptr inbounds nuw %struct.blake2b_state, ptr %46, i32 0, i32 3
  %48 = getelementptr inbounds [256 x i8], ptr %47, i64 0, i64 0
  %49 = getelementptr i8, ptr %48, i64 128
  %50 = call ptr @memcpy.inline(ptr noundef %45, ptr noundef %49, i64 noundef 128) #8
  %51 = load ptr, ptr %4, align 8
  %52 = getelementptr inbounds nuw %struct.blake2b_state, ptr %51, i32 0, i32 4
  %53 = load i64, ptr %52, align 1
  %54 = sub i64 %53, 128
  store i64 %54, ptr %52, align 1
  %55 = load i64, ptr %8, align 8
  %56 = load ptr, ptr %5, align 8
  %57 = getelementptr i8, ptr %56, i64 %55
  store ptr %57, ptr %5, align 8
  %58 = load i64, ptr %8, align 8
  %59 = load i64, ptr %6, align 8
  %60 = sub i64 %59, %58
  store i64 %60, ptr %6, align 8
  br label %81

61:                                               ; preds = %12
  %62 = load ptr, ptr %4, align 8
  %63 = getelementptr inbounds nuw %struct.blake2b_state, ptr %62, i32 0, i32 3
  %64 = getelementptr inbounds [256 x i8], ptr %63, i64 0, i64 0
  %65 = load i64, ptr %7, align 8
  %66 = getelementptr i8, ptr %64, i64 %65
  %67 = load ptr, ptr %5, align 8
  %68 = load i64, ptr %6, align 8
  %69 = call ptr @memcpy.inline(ptr noundef %66, ptr noundef %67, i64 noundef %68) #8
  %70 = load i64, ptr %6, align 8
  %71 = load ptr, ptr %4, align 8
  %72 = getelementptr inbounds nuw %struct.blake2b_state, ptr %71, i32 0, i32 4
  %73 = load i64, ptr %72, align 1
  %74 = add i64 %73, %70
  store i64 %74, ptr %72, align 1
  %75 = load i64, ptr %6, align 8
  %76 = load ptr, ptr %5, align 8
  %77 = getelementptr i8, ptr %76, i64 %75
  store ptr %77, ptr %5, align 8
  %78 = load i64, ptr %6, align 8
  %79 = load i64, ptr %6, align 8
  %80 = sub i64 %79, %78
  store i64 %80, ptr %6, align 8
  br label %81

81:                                               ; preds = %61, %21
  call void @llvm.lifetime.end.p0(i64 8, ptr %8) #8
  call void @llvm.lifetime.end.p0(i64 8, ptr %7) #8
  br label %9, !llvm.loop !7

82:                                               ; preds = %9
  ret i32 0
}